target datalayout = "e-m:e-p270:32:32-p271:32:32-p272:64:64-i64:64-i128:128-f80:128-n8:16:32:64-S128"
target triple = "x86_64-pc-linux-gnu"

%struct.Tim_Man_t_ = type { ptr, ptr, ptr, i32, i32, i32, i32, ptr, ptr }
%struct.Tim_Obj_t_ = type { i32, i32, i32, i32, float, float }
%struct.Vec_Ptr_t_ = type { i32, i32, ptr }

; Function Attrs: nounwind uwtable
define internal i32 @Vec_PtrSize(ptr noundef %0) #0 {
  %2 = alloca ptr, align 8
  store ptr %0, ptr %2, align 8
  %3 = load ptr, ptr %2, align 8
  %4 = getelementptr inbounds %struct.Vec_Ptr_t_, ptr %3, i32 0, i32 1
  %5 = load i32, ptr %4, align 4
  ret i32 %5
}

; Function Attrs: nounwind uwtable
define i32 @Tim_ManBoxNum(ptr noundef %0) #0 {
  %2 = alloca ptr, align 8
  store ptr %0, ptr %2, align 8
  %3 = load ptr, ptr %2, align 8
  %4 = getelementptr inbounds %struct.Tim_Man_t_, ptr %3, i32 0, i32 0
  %5 = load ptr, ptr %4, align 8
  %6 = icmp ne ptr %5, null
  br i1 %6, label %7, label %12

7:                                                ; preds = %1
  %8 = load ptr, ptr %2, align 8
  %9 = getelementptr inbounds %struct.Tim_Man_t_, ptr %8, i32 0, i32 0
  %10 = load ptr, ptr %9, align 8
  %11 = call i32 @Vec_PtrSize(ptr noundef %10)
  br label %13

12:                                               ; preds = %1
  br label %13

13:                                               ; preds = %12, %7
  %14 = phi i32 [ %11, %7 ], [ 0, %12 ]
  ret i32 %14
}

; Function Attrs: nounwind uwtable
define i32 @Tim_ManCiNum(ptr noundef %0) #0 {
  %2 = alloca ptr, align 8
  store ptr %0, ptr %2, align 8
  %3 = load ptr, ptr %2, align 8
  %4 = getelementptr inbounds %struct.Tim_Man_t_, ptr %3, i32 0, i32 5
  %5 = load i32, ptr %4, align 8
  ret i32 %5
}

; Function Attrs: nounwind uwtable
define i32 @Tim_ManPiNum(ptr noundef %0) #0 {
  %2 = alloca i32, align 4
  %3 = alloca ptr, align 8
  store ptr %0, ptr %3, align 8
  %4 = load ptr, ptr %3, align 8
  %5 = call i32 @Tim_ManBoxNum(ptr noundef %4)
  %6 = icmp eq i32 %5, 0
  br i1 %6, label %7, label %10

7:                                                ; preds = %1
  %8 = load ptr, ptr %3, align 8
  %9 = call i32 @Tim_ManCiNum(ptr noundef %8)
  store i32 %9, ptr %2, align 4
  br label %13

10:                                               ; preds = %1
  %11 = load ptr, ptr %3, align 8
  %12 = call i32 @Tim_ManBoxOutputFirst(ptr noundef %11, i32 noundef 0)
  store i32 %12, ptr %2, align 4
  br label %13

13:                                               ; preds = %10, %7
  %14 = load i32, ptr %2, align 4
  ret i32 %14
}

; Function Attrs: nounwind uwtable
define ptr @Tim_ManGetArrTimes(ptr noundef %0) #0 {
  %2 = alloca ptr, align 8
  %3 = alloca ptr, align 8
  %4 = alloca ptr, align 8
  %5 = alloca ptr, align 8
  %6 = alloca i32, align 4
  store ptr %0, ptr %3, align 8
  store i32 0, ptr %6, align 4
  br label %7

7:                                                ; preds = %38, %1
  %8 = load i32, ptr %6, align 4
  %9 = load ptr, ptr %3, align 8
  %10 = getelementptr inbounds %struct.Tim_Man_t_, ptr %9, i32 0, i32 5
  %11 = load i32, ptr %10, align 8
  %12 = icmp slt i32 %8, %11
  br i1 %12, label %13, label %21

13:                                               ; preds = %7
  %14 = load ptr, ptr %3, align 8
  %15 = getelementptr inbounds %struct.Tim_Man_t_, ptr %14, i32 0, i32 7
  %16 = load ptr, ptr %15, align 8
  %17 = load i32, ptr %6, align 4
  %18 = sext i32 %17 to i64
  %19 = getelementptr inbounds %struct.Tim_Obj_t_, ptr %16, i64 %18
  store ptr %19, ptr %5, align 8
  %20 = icmp ne ptr %19, null
  br label %21

21:                                               ; preds = %13, %7
  %22 = phi i1 [ false, %7 ], [ %20, %13 ]
  br i1 %22, label %23, label %41

23:                                               ; preds = %21
  %24 = load ptr, ptr %5, align 8
  %25 = getelementptr inbounds %struct.Tim_Obj_t_, ptr %24, i32 0, i32 2
  %26 = load i32, ptr %25, align 4
  %27 = icmp sge i32 %26, 0
  br i1 %27, label %28, label %29

28:                                               ; preds = %23
  br label %37

29:                                               ; preds = %23
  %30 = load ptr, ptr %5, align 8
  %31 = getelementptr inbounds %struct.Tim_Obj_t_, ptr %30, i32 0, i32 4
  %32 = load float, ptr %31, align 4
  %33 = fpext float %32 to double
  %34 = fcmp une double %33, 0.000000e+00
  br i1 %34, label %35, label %36

35:                                               ; preds = %29
  br label %41

36:                                               ; preds = %29
  br label %37

37:                                               ; preds = %36, %28
  br label %38

38:                                               ; preds = %37
  %39 = load i32, ptr %6, align 4
  %40 = add nsw i32 %39, 1
  store i32 %40, ptr %6, align 4
  br label %7, !llvm.loop !31

41:                                               ; preds = %35, %21
  %42 = load i32, ptr %6, align 4
  %43 = load ptr, ptr %3, align 8
  %44 = call i32 @Tim_ManPiNum(ptr noundef %43)
  %45 = icmp eq i32 %42, %44
  br i1 %45, label %46, label %47

46:                                               ; preds = %41
  store ptr null, ptr %2, align 8
  br label %93

47:                                               ; preds = %41
  %48 = load ptr, ptr %3, align 8
  %49 = call i32 @Tim_ManCiNum(ptr noundef %48)
  %50 = sext i32 %49 to i64
  %51 = mul i64 4, %50
  %52 = call noalias ptr @malloc(i64 noundef %51) #9
  %53 = load ptr, ptr %3, align 8
  %54 = call i32 @Tim_ManCiNum(ptr noundef %53)
  %55 = sext i32 %54 to i64
  %56 = mul i64 4, %55
  call void @llvm.memset.p0.i64(ptr align 1 %52, i8 -1, i64 %56, i1 false)
  store ptr %52, ptr %4, align 8
  store i32 0, ptr %6, align 4
  br label %57

57:                                               ; preds = %88, %47
  %58 = load i32, ptr %6, align 4
  %59 = load ptr, ptr %3, align 8
  %60 = getelementptr inbounds %struct.Tim_Man_t_, ptr %59, i32 0, i32 5
  %61 = load i32, ptr %60, align 8
  %62 = icmp slt i32 %58, %61
  br i1 %62, label %63, label %71

63:                                               ; preds = %57
  %64 = load ptr, ptr %3, align 8
  %65 = getelementptr inbounds %struct.Tim_Man_t_, ptr %64, i32 0, i32 7
  %66 = load ptr, ptr %65, align 8
  %67 = load i32, ptr %6, align 4
  %68 = sext i32 %67 to i64
  %69 = getelementptr inbounds %struct.Tim_Obj_t_, ptr %66, i64 %68
  store ptr %69, ptr %5, align 8
  %70 = icmp ne ptr %69, null
  br label %71

71:                                               ; preds = %63, %57
  %72 = phi i1 [ false, %57 ], [ %70, %63 ]
  br i1 %72, label %73, label %91

73:                                               ; preds = %71
  %74 = load ptr, ptr %5, align 8
  %75 = getelementptr inbounds %struct.Tim_Obj_t_, ptr %74, i32 0, i32 2
  %76 = load i32, ptr %75, align 4
  %77 = icmp sge i32 %76, 0
  br i1 %77, label %78, label %79

78:                                               ; preds = %73
  br label %87

79:                                               ; preds = %73
  %80 = load ptr, ptr %5, align 8
  %81 = getelementptr inbounds %struct.Tim_Obj_t_, ptr %80, i32 0, i32 4
  %82 = load float, ptr %81, align 4
  %83 = load ptr, ptr %4, align 8
  %84 = load i32, ptr %6, align 4
  %85 = sext i32 %84 to i64
  %86 = getelementptr inbounds float, ptr %83, i64 %85
  store float %82, ptr %86, align 4
  br label %87

87:                                               ; preds = %79, %78
  br label %88

88:                                               ; preds = %87
  %89 = load i32, ptr %6, align 4
  %90 = add nsw i32 %89, 1
  store i32 %90, ptr %6, align 4
  br label %57, !llvm.loop !32

91:                                               ; preds = %71
  %92 = load ptr, ptr %4, align 8
  store ptr %92, ptr %2, align 8
  br label %93

93:                                               ; preds = %91, %46
  %94 = load ptr, ptr %2, align 8
  ret ptr %94
}