; Function Attrs: nounwind uwtable
define noalias noundef ptr @Tim_ManGetArrTimes(ptr noundef %0) local_unnamed_addr #0 {
  %2 = getelementptr inbounds nuw i8, ptr %0, i64 32
  %3 = load i32, ptr %2, align 8
  %4 = icmp sgt i32 %3, 0
  br i1 %4, label %.lr.ph, label %.critedge

.lr.ph:                                           ; preds = %1
  %5 = getelementptr inbounds nuw i8, ptr %0, i64 40
  %6 = load ptr, ptr %5, align 8
  %.not = icmp eq ptr %6, null
  br i1 %.not, label %.critedge, label %.lr.ph.split.preheader

.lr.ph.split.preheader:                           ; preds = %.lr.ph
  %wide.trip.count = zext nneg i32 %3 to i64
  br label %.lr.ph.split

.lr.ph.split:                                     ; preds = %.lr.ph.split.preheader, %15
  %indvars.iv = phi i64 [ 0, %.lr.ph.split.preheader ], [ %indvars.iv.next, %15 ]
  %7 = getelementptr inbounds nuw %struct.Tim_Obj_t_, ptr %6, i64 %indvars.iv
  %8 = getelementptr inbounds nuw i8, ptr %7, i64 8
  %9 = load i32, ptr %8, align 4
  %10 = icmp sgt i32 %9, -1
  br i1 %10, label %15, label %11

11:                                               ; preds = %.lr.ph.split
  %12 = getelementptr inbounds nuw i8, ptr %7, i64 16
  %13 = load float, ptr %12, align 4
  %14 = fcmp une float %13, 0.000000e+00
  br i1 %14, label %.critedge.loopexit.split.loop.exit46, label %15

15:                                               ; preds = %.lr.ph.split, %11
  %indvars.iv.next = add nuw nsw i64 %indvars.iv, 1
  %exitcond.not = icmp eq i64 %indvars.iv.next, %wide.trip.count
  br i1 %exitcond.not, label %.critedge, label %.lr.ph.split, !llvm.loop !32

.critedge.loopexit.split.loop.exit46:             ; preds = %11
  %16 = trunc nuw nsw i64 %indvars.iv to i32
  br label %.critedge

.critedge:                                        ; preds = %15, %.critedge.loopexit.split.loop.exit46, %.lr.ph, %1
  %.0.lcssa = phi i32 [ 0, %1 ], [ 0, %.lr.ph ], [ %16, %.critedge.loopexit.split.loop.exit46 ], [ %3, %15 ]
  %17 = load ptr, ptr %0, align 8
  %.not.i.i = icmp eq ptr %17, null
  br i1 %.not.i.i, label %Tim_ManPiNum.exit, label %Tim_ManBoxNum.exit.i

Tim_ManBoxNum.exit.i:                             ; preds = %.critedge
  %18 = getelementptr i8, ptr %17, i64 4
  %.val.i.i = load i32, ptr %18, align 4
  %19 = icmp eq i32 %.val.i.i, 0
  br i1 %19, label %Tim_ManPiNum.exit, label %20

20:                                               ; preds = %Tim_ManBoxNum.exit.i
  %21 = tail call i32 @Tim_ManBoxOutputFirst(ptr noundef nonnull %0, i32 noundef 0) #18
  br label %Tim_ManPiNum.exit

Tim_ManPiNum.exit:                                ; preds = %.critedge, %Tim_ManBoxNum.exit.i, %20
  %.0.i = phi i32 [ %21, %20 ], [ %3, %Tim_ManBoxNum.exit.i ], [ %3, %.critedge ]
  %22 = icmp eq i32 %.0.lcssa, %.0.i
  br i1 %22, label %.critedge2, label %23

23:                                               ; preds = %Tim_ManPiNum.exit
  %24 = load i32, ptr %2, align 8
  %25 = sext i32 %24 to i64
  %26 = shl nsw i64 %25, 2
  %27 = tail call noalias ptr @malloc(i64 noundef %26) #19
  tail call void @llvm.memset.p0.i64(ptr align 1 %27, i8 -1, i64 %26, i1 false)
  %28 = icmp sgt i32 %24, 0
  br i1 %28, label %.lr.ph38, label %.critedge2

.lr.ph38:                                         ; preds = %23
  %29 = getelementptr inbounds nuw i8, ptr %0, i64 40
  %30 = load ptr, ptr %29, align 8
  %.not26 = icmp eq ptr %30, null
  br i1 %.not26, label %.critedge2, label %.lr.ph38.split.preheader

.lr.ph38.split.preheader:                         ; preds = %.lr.ph38
  %wide.trip.count44 = zext nneg i32 %24 to i64
  br label %.lr.ph38.split

.lr.ph38.split:                                   ; preds = %.lr.ph38.split.preheader, %39
  %indvars.iv41 = phi i64 [ 0, %.lr.ph38.split.preheader ], [ %indvars.iv.next42, %39 ]
  %31 = getelementptr inbounds nuw %struct.Tim_Obj_t_, ptr %30, i64 %indvars.iv41
  %32 = getelementptr inbounds nuw i8, ptr %31, i64 8
  %33 = load i32, ptr %32, align 4
  %34 = icmp sgt i32 %33, -1
  br i1 %34, label %39, label %35

35:                                               ; preds = %.lr.ph38.split
  %36 = getelementptr inbounds nuw i8, ptr %31, i64 16
  %37 = load float, ptr %36, align 4
  %38 = getelementptr inbounds nuw float, ptr %27, i64 %indvars.iv41
  store float %37, ptr %38, align 4
  br label %39

39:                                               ; preds = %35, %.lr.ph38.split
  %indvars.iv.next42 = add nuw nsw i64 %indvars.iv41, 1
  %exitcond45.not = icmp eq i64 %indvars.iv.next42, %wide.trip.count44
  br i1 %exitcond45.not, label %.critedge2, label %.lr.ph38.split, !llvm.loop !33

.critedge2:                                       ; preds = %39, %23, %.lr.ph38, %Tim_ManPiNum.exit
  %.023 = phi ptr [ null, %Tim_ManPiNum.exit ], [ %27, %.lr.ph38 ], [ %27, %23 ], [ %27, %39 ]
  ret ptr %.023
}